target datalayout = "e-m:e-p270:32:32-p271:32:32-p272:64:64-i64:64-i128:128-f80:128-n8:16:32:64-S128"
target triple = "x86_64-pc-linux-gnu"

; Function Attrs: nounwind uwtable
define internal i32 @bio_bufferevent_read(ptr noundef %0, ptr noundef %1, i64 noundef %2) #0 {
  %4 = alloca i32, align 4
  %5 = alloca ptr, align 8
  %6 = alloca ptr, align 8
  %7 = alloca i64, align 8
  %8 = alloca ptr, align 8
  %9 = alloca i32, align 4
  %10 = alloca ptr, align 8
  %11 = alloca i32, align 4
  store ptr %0, ptr %5, align 8
  store ptr %1, ptr %6, align 8
  store i64 %2, ptr %7, align 8
  call void @llvm.lifetime.start.p0(i64 8, ptr %8) #3
  %12 = load ptr, ptr %5, align 8
  store ptr %12, ptr %8, align 8
  call void @llvm.lifetime.start.p0(i64 4, ptr %9) #3
  store i32 0, ptr %9, align 4
  call void @llvm.lifetime.start.p0(i64 8, ptr %10) #3
  %13 = load ptr, ptr %6, align 8
  %14 = icmp ne ptr %13, null
  br i1 %14, label %16, label %15

15:                                               ; preds = %3
  store i32 0, ptr %4, align 4
  store i32 1, ptr %11, align 4
  br label %34

16:                                               ; preds = %3
  %17 = load ptr, ptr %8, align 8
  %18 = icmp ne ptr %17, null
  br i1 %18, label %20, label %19

19:                                               ; preds = %16
  store i32 -69, ptr %4, align 4
  store i32 1, ptr %11, align 4
  br label %34

20:                                               ; preds = %16
  %21 = load ptr, ptr %8, align 8
  %22 = call ptr @bufferevent_get_input(ptr noundef %21)
  store ptr %22, ptr %10, align 8
  %23 = load ptr, ptr %10, align 8
  %24 = call i64 @evbuffer_get_length(ptr noundef %23)
  %25 = icmp eq i64 %24, 0
  br i1 %25, label %26, label %27

26:                                               ; preds = %20
  store i32 -26880, ptr %4, align 4
  store i32 1, ptr %11, align 4
  br label %34

27:                                               ; preds = %20
  %28 = load ptr, ptr %10, align 8
  %29 = load ptr, ptr %6, align 8
  %30 = load i64, ptr %7, align 8
  %31 = call i32 @evbuffer_remove(ptr noundef %28, ptr noundef %29, i64 noundef %30)
  store i32 %31, ptr %9, align 4
  br label %32

32:                                               ; preds = %27
  %33 = load i32, ptr %9, align 4
  store i32 %33, ptr %4, align 4
  store i32 1, ptr %11, align 4
  br label %34

34:                                               ; preds = %32, %26, %19, %15
  call void @llvm.lifetime.end.p0(i64 8, ptr %10) #3
  call void @llvm.lifetime.end.p0(i64 4, ptr %9) #3
  call void @llvm.lifetime.end.p0(i64 8, ptr %8) #3
  %35 = load i32, ptr %4, align 4
  ret i32 %35
}