; Function Attrs: nounwind uwtable
define internal i32 @bio_bufferevent_read(ptr noundef %0, ptr noundef %1, i64 noundef %2) #0 {
  %.not = icmp eq ptr %1, null
  br i1 %.not, label %11, label %4

4:                                                ; preds = %3
  %.not11 = icmp eq ptr %0, null
  br i1 %.not11, label %11, label %5

5:                                                ; preds = %4
  %6 = tail call ptr @bufferevent_get_input(ptr noundef nonnull %0) #5
  %7 = tail call i64 @evbuffer_get_length(ptr noundef %6) #5
  %8 = icmp eq i64 %7, 0
  br i1 %8, label %11, label %9

9:                                                ; preds = %5
  %10 = tail call i32 @evbuffer_remove(ptr noundef %6, ptr noundef nonnull %1, i64 noundef %2) #5
  br label %11

11:                                               ; preds = %5, %4, %3, %9
  %.0 = phi i32 [ %10, %9 ], [ 0, %3 ], [ -69, %4 ], [ -26880, %5 ]
  ret i32 %.0
}